target datalayout = "e-m:e-p270:32:32-p271:32:32-p272:64:64-i64:64-i128:128-f80:128-n8:16:32:64-S128"
target triple = "x86_64-pc-linux-gnu"

%"class.std::__cxx11::basic_string" = type { %"struct.std::__cxx11::basic_string<char>::_Alloc_hider", i64, %union.anon }
%"struct.std::__cxx11::basic_string<char>::_Alloc_hider" = type { ptr }
%union.anon = type { i64, [8 x i8] }
%"class.llvm::StringRef" = type { ptr, i64 }
%"class.std::optional.1044" = type { %"struct.std::_Optional_base.1045" }
%"struct.std::_Optional_base.1045" = type { %"struct.std::_Optional_payload.1047" }
%"struct.std::_Optional_payload.1047" = type { %"struct.std::_Optional_payload_base.base.1049", [3 x i8] }
%"struct.std::_Optional_payload_base.base.1049" = type <{ %"union.std::_Optional_payload_base<unsigned int>::_Storage", i8 }>
%"union.std::_Optional_payload_base<unsigned int>::_Storage" = type { i32 }
%"class.llvm::StringMapImpl" = type { ptr, i32, i32, i32, i32 }
%"class.llvm::VersionTuple" = type { i64, i64 }
%"class.clang::TargetCXXABI" = type { i32 }
%"class.clang::TargetInfo" = type <{ ptr, %"struct.clang::TransferrableTargetInfo.base", %"class.llvm::RefCountedBase.1052", %"class.std::shared_ptr", %"class.llvm::Triple", i8, i8, i8, i8, i8, i8, i8, i8, i8, i8, i8, i8, i8, i8, i8, i8, %"class.std::__cxx11::basic_string", ptr, ptr, i8, i8, [2 x i8], %"class.clang::TargetCXXABI", ptr, %"class.llvm::StringRef", %"class.llvm::VersionTuple", i32, i32, %"class.std::optional.1044", %"class.std::optional.1053", %"class.llvm::StringSet", i8, [7 x i8] }>
%"struct.clang::TransferrableTargetInfo.base" = type <{ i8, i8, i8, i8, i8, i8, i8, i8, i8, i8, i8, i8, i8, i8, i8, i8, i8, i8, i8, i8, i8, i8, i8, i8, i8, [3 x i8], %"class.std::optional.1044", i8, i8, i8, i8, i8, i8, i8, i8, i8, i8, i8, i8, i8, i8, i8, i8, i8, i8, i16, i16, [2 x i8], i32, i32, [4 x i8], ptr, ptr, ptr, ptr, ptr, ptr, ptr, i32, i32, i32, i32, i32, i32, i32, i32, i32, i32, i32, i32, i8, [3 x i8], i32, i32 }>
%"class.llvm::RefCountedBase.1052" = type { i32 }
%"class.std::shared_ptr" = type { %"class.std::__shared_ptr" }
%"class.std::__shared_ptr" = type { ptr, %"class.std::__shared_count" }
%"class.std::__shared_count" = type { ptr }
%"class.llvm::Triple" = type { %"class.std::__cxx11::basic_string", i32, i32, i32, i32, i32, i32 }
%"class.std::optional.1053" = type { %"struct.std::_Optional_base.1054" }
%"struct.std::_Optional_base.1054" = type { %"struct.std::_Optional_payload.1056" }
%"struct.std::_Optional_payload.1056" = type { %"struct.std::_Optional_payload.base.1060", [7 x i8] }
%"struct.std::_Optional_payload.base.1060" = type { %"struct.std::_Optional_payload_base.base.1059" }
%"struct.std::_Optional_payload_base.base.1059" = type <{ %"union.std::_Optional_payload_base<llvm::Triple>::_Storage", i8 }>
%"union.std::_Optional_payload_base<llvm::Triple>::_Storage" = type { %"class.llvm::Triple" }
%"class.llvm::StringSet" = type { %"class.llvm::StringMap.1063" }
%"class.llvm::StringMap.1063" = type { %"class.llvm::StringMapImpl" }

; Function Attrs: mustprogress nounwind uwtable
define linkonce_odr hidden noundef i32 @_ZNK5clang12TargetCXXABI7getKindEv(ptr noundef nonnull align 4 dereferenceable(4) %0) #0 comdat align 2 {
  %2 = alloca ptr, align 8
  store ptr %0, ptr %2, align 8
  %3 = load ptr, ptr %2, align 8
  %4 = getelementptr inbounds nuw %"class.clang::TargetCXXABI", ptr %3, i32 0, i32 0
  %5 = load i32, ptr %4, align 4
  ret i32 %5
}

; Function Attrs: mustprogress nounwind uwtable
define linkonce_odr hidden noundef zeroext i1 @_ZNK5clang12TargetCXXABI11isMicrosoftEv(ptr noundef nonnull align 4 dereferenceable(4) %0) #0 comdat align 2 {
  %2 = alloca i1, align 1
  %3 = alloca ptr, align 8
  store ptr %0, ptr %3, align 8
  %4 = load ptr, ptr %3, align 8
  %5 = call noundef i32 @_ZNK5clang12TargetCXXABI7getKindEv(ptr noundef nonnull align 4 dereferenceable(4) %4)
  switch i32 %5, label %7 [
    i32 10, label %6
  ]

6:                                                ; preds = %1
  store i1 true, ptr %2, align 1
  br label %8

7:                                                ; preds = %1
  store i1 false, ptr %2, align 1
  br label %8

8:                                                ; preds = %7, %6
  %9 = load i1, ptr %2, align 1
  ret i1 %9
}

; Function Attrs: mustprogress nounwind uwtable
define linkonce_odr hidden noundef i32 @_ZNK4llvm6Triple7getArchEv(ptr noundef nonnull align 8 dereferenceable(56) %0) #0 comdat align 2 {
  %2 = alloca ptr, align 8
  store ptr %0, ptr %2, align 8
  %3 = load ptr, ptr %2, align 8
  %4 = getelementptr inbounds nuw %"class.llvm::Triple", ptr %3, i32 0, i32 1
  %5 = load i32, ptr %4, align 8
  ret i32 %5
}

; Function Attrs: mustprogress nounwind uwtable
define linkonce_odr hidden noundef zeroext i1 @_ZNK5clang12TargetCXXABI15isItaniumFamilyEv(ptr noundef nonnull align 4 dereferenceable(4) %0) #0 comdat align 2 {
  %2 = alloca i1, align 1
  %3 = alloca ptr, align 8
  store ptr %0, ptr %3, align 8
  %4 = load ptr, ptr %3, align 8
  %5 = call noundef i32 @_ZNK5clang12TargetCXXABI7getKindEv(ptr noundef nonnull align 4 dereferenceable(4) %4)
  switch i32 %5, label %7 [
    i32 0, label %6
    i32 1, label %6
    i32 2, label %6
    i32 3, label %6
    i32 4, label %6
    i32 5, label %6
    i32 6, label %6
    i32 7, label %6
    i32 8, label %6
    i32 9, label %6
  ]

6:                                                ; preds = %1, %1, %1, %1, %1, %1, %1, %1, %1, %1
  store i1 true, ptr %2, align 1
  br label %8

7:                                                ; preds = %1
  store i1 false, ptr %2, align 1
  br label %8

8:                                                ; preds = %7, %6
  %9 = load i1, ptr %2, align 1
  ret i1 %9
}

; Function Attrs: mustprogress nounwind uwtable
define linkonce_odr hidden i32 @_ZNK5clang10TargetInfo9getCXXABIEv(ptr noundef nonnull align 8 dereferenceable(489) %0) #0 comdat align 2 {
  %2 = alloca %"class.clang::TargetCXXABI", align 4
  %3 = alloca ptr, align 8
  store ptr %0, ptr %3, align 8
  %4 = load ptr, ptr %3, align 8
  %5 = getelementptr inbounds nuw %"class.clang::TargetInfo", ptr %4, i32 0, i32 27
  call void @llvm.memcpy.p0.p0.i64(ptr align 4 %2, ptr align 4 %5, i64 4, i1 false)
  %6 = getelementptr inbounds nuw %"class.clang::TargetCXXABI", ptr %2, i32 0, i32 0
  %7 = load i32, ptr %6, align 4
  ret i32 %7
}

; Function Attrs: mustprogress nounwind uwtable
define linkonce_odr hidden noundef nonnull align 8 dereferenceable(56) ptr @_ZNK5clang10TargetInfo9getTripleEv(ptr noundef nonnull align 8 dereferenceable(489) %0) #0 comdat align 2 {
  %2 = alloca ptr, align 8
  store ptr %0, ptr %2, align 8
  %3 = load ptr, ptr %2, align 8
  %4 = getelementptr inbounds nuw %"class.clang::TargetInfo", ptr %3, i32 0, i32 4
  ret ptr %4
}

; Function Attrs: mustprogress nounwind uwtable
define internal noundef zeroext i1 @_ZNK12_GLOBAL__N_129ParsedAttrInfoNoUniqueAddress22spellingExistsInTargetERKN5clang10TargetInfoEj(ptr noundef nonnull align 8 dereferenceable(48) %0, ptr noundef nonnull align 8 dereferenceable(489) %1, i32 noundef %2) unnamed_addr #0 align 2 {
  %4 = alloca ptr, align 8
  %5 = alloca ptr, align 8
  %6 = alloca i32, align 4
  %7 = alloca ptr, align 8
  %8 = alloca %"class.clang::TargetCXXABI", align 4
  %9 = alloca %"class.clang::TargetCXXABI", align 4
  store ptr %0, ptr %4, align 8
  store ptr %1, ptr %5, align 8
  store i32 %2, ptr %6, align 4
  %10 = load ptr, ptr %5, align 8
  %11 = call noundef nonnull align 8 dereferenceable(56) ptr @_ZNK5clang10TargetInfo9getTripleEv(ptr noundef nonnull align 8 dereferenceable(489) %10)
  store ptr %11, ptr %7, align 8
  %12 = load i32, ptr %6, align 4
  %13 = icmp eq i32 %12, 0
  br i1 %13, label %14, label %19

14:                                               ; preds = %3
  %15 = load ptr, ptr %5, align 8
  %16 = call i32 @_ZNK5clang10TargetInfo9getCXXABIEv(ptr noundef nonnull align 8 dereferenceable(489) %15)
  %17 = getelementptr inbounds nuw %"class.clang::TargetCXXABI", ptr %8, i32 0, i32 0
  store i32 %16, ptr %17, align 4
  %18 = call noundef zeroext i1 @_ZNK5clang12TargetCXXABI15isItaniumFamilyEv(ptr noundef nonnull align 4 dereferenceable(4) %8)
  br i1 %18, label %49, label %19

19:                                               ; preds = %14, %3
  %20 = load i32, ptr %6, align 4
  %21 = icmp eq i32 %20, 1
  br i1 %21, label %22, label %47

22:                                               ; preds = %19
  %23 = load ptr, ptr %7, align 8
  %24 = call noundef i32 @_ZNK4llvm6Triple7getArchEv(ptr noundef nonnull align 8 dereferenceable(56) %23)
  %25 = icmp eq i32 %24, 37
  br i1 %25, label %42, label %26

26:                                               ; preds = %22
  %27 = load ptr, ptr %7, align 8
  %28 = call noundef i32 @_ZNK4llvm6Triple7getArchEv(ptr noundef nonnull align 8 dereferenceable(56) %27)
  %29 = icmp eq i32 %28, 38
  br i1 %29, label %42, label %30

30:                                               ; preds = %26
  %31 = load ptr, ptr %7, align 8
  %32 = call noundef i32 @_ZNK4llvm6Triple7getArchEv(ptr noundef nonnull align 8 dereferenceable(56) %31)
  %33 = icmp eq i32 %32, 1
  br i1 %33, label %42, label %34

34:                                               ; preds = %30
  %35 = load ptr, ptr %7, align 8
  %36 = call noundef i32 @_ZNK4llvm6Triple7getArchEv(ptr noundef nonnull align 8 dereferenceable(56) %35)
  %37 = icmp eq i32 %36, 35
  br i1 %37, label %42, label %38

38:                                               ; preds = %34
  %39 = load ptr, ptr %7, align 8
  %40 = call noundef i32 @_ZNK4llvm6Triple7getArchEv(ptr noundef nonnull align 8 dereferenceable(56) %39)
  %41 = icmp eq i32 %40, 3
  br i1 %41, label %42, label %47

42:                                               ; preds = %38, %34, %30, %26, %22
  %43 = load ptr, ptr %5, align 8
  %44 = call i32 @_ZNK5clang10TargetInfo9getCXXABIEv(ptr noundef nonnull align 8 dereferenceable(489) %43)
  %45 = getelementptr inbounds nuw %"class.clang::TargetCXXABI", ptr %9, i32 0, i32 0
  store i32 %44, ptr %45, align 4
  %46 = call noundef zeroext i1 @_ZNK5clang12TargetCXXABI11isMicrosoftEv(ptr noundef nonnull align 4 dereferenceable(4) %9)
  br label %47

47:                                               ; preds = %42, %38, %19
  %48 = phi i1 [ false, %38 ], [ false, %19 ], [ %46, %42 ]
  br label %49

49:                                               ; preds = %47, %14
  %50 = phi i1 [ true, %14 ], [ %48, %47 ]
  ret i1 %50
}