; Function Attrs: mustprogress nofree norecurse nosync nounwind willreturn memory(argmem: read) uwtable
define internal noundef zeroext i1 @_ZNK12_GLOBAL__N_129ParsedAttrInfoNoUniqueAddress22spellingExistsInTargetERKN5clang10TargetInfoEj(ptr nocapture nonnull readnone align 8 %0, ptr nocapture noundef nonnull readonly align 8 dereferenceable(489) %1, i32 noundef %2) unnamed_addr #2 align 2 {
  switch i32 %2, label %11 [
    i32 0, label %4
    i32 1, label %6
  ]

4:                                                ; preds = %3
  %5 = getelementptr inbounds nuw i8, ptr %1, i64 340
  %.sroa.0.0.copyload.i = load i32, ptr %5, align 4
  %switch.i = icmp ult i32 %.sroa.0.0.copyload.i, 10
  br label %11

6:                                                ; preds = %3
  %7 = getelementptr inbounds i8, ptr %1, i64 248
  %8 = load i32, ptr %7, align 8
  switch i32 %8, label %11 [
    i32 37, label %9
    i32 38, label %9
    i32 1, label %9
    i32 35, label %9
    i32 3, label %9
  ]

9:                                                ; preds = %6, %6, %6, %6, %6
  %10 = getelementptr inbounds nuw i8, ptr %1, i64 340
  %.sroa.0.0.copyload.i9 = load i32, ptr %10, align 4
  %cond.i = icmp eq i32 %.sroa.0.0.copyload.i9, 10
  br label %11

11:                                               ; preds = %4, %6, %3, %9
  %12 = phi i1 [ %cond.i, %9 ], [ false, %3 ], [ %switch.i, %4 ], [ false, %6 ]
  ret i1 %12
}